; Function Attrs: mustprogress uwtable
define void @_ZN8proxygen13SessionHolder32onSettingsOutgoingStreamsNotFullERKNS_15HTTPSessionBaseE(ptr noundef nonnull align 8 dereferenceable(152) %this, ptr noundef nonnull align 8 dereferenceable(1582) %session) unnamed_addr #3 align 2 {
entry:
  %originalSessionInfoCb_ = getelementptr inbounds i8, ptr %this, i64 144
  %0 = load ptr, ptr %originalSessionInfoCb_, align 8
  %tobool.not = icmp eq ptr %0, null
  br i1 %tobool.not, label %if.end, label %if.then

if.then:                                          ; preds = %entry
  %vtable = load ptr, ptr %0, align 8
  %vfn = getelementptr inbounds i8, ptr %vtable, i64 192
  %1 = load ptr, ptr %vfn, align 8
  tail call void %1(ptr noundef nonnull align 8 dereferenceable(8) %0, ptr noundef nonnull align 8 dereferenceable(1582) %session)
  br label %if.end

if.end:                                           ; preds = %if.then, %entry
  %state_ = getelementptr inbounds i8, ptr %this, i64 80
  %2 = load i32, ptr %state_, align 8
  %cond = icmp eq i32 %2, 3
  br i1 %cond, label %if.then5, label %if.end6

if.then5:                                         ; preds = %if.end
  tail call void @_ZN8proxygen13SessionHolder6unlinkEv(ptr noundef nonnull align 8 dereferenceable(152) %this)
  tail call void @_ZN8proxygen13SessionHolder4linkEv(ptr noundef nonnull align 8 dereferenceable(152) %this)
  br label %if.end6

if.end6:                                          ; preds = %if.end, %if.then5
  ret void
}